target datalayout = "e-m:e-p270:32:32-p271:32:32-p272:64:64-i64:64-i128:128-f80:128-n8:16:32:64-S128"
target triple = "x86_64-pc-linux-gnu"

%struct._object = type { i64, ptr }

@.str.18 = private unnamed_addr constant [4 x i8] c"(i)\00", align 1
@.str.19 = private unnamed_addr constant [5 x i8] c"(iO)\00", align 1

; Function Attrs: inlinehint mustprogress uwtable
define internal void @_ZL10_Py_DECREFP7_object(ptr noundef %0) #6 {
  %2 = alloca ptr, align 8
  store ptr %0, ptr %2, align 8, !tbaa !3
  %3 = load ptr, ptr %2, align 8, !tbaa !3
  %4 = getelementptr inbounds nuw %struct._object, ptr %3, i32 0, i32 0
  %5 = load i64, ptr %4, align 8, !tbaa !35
  %6 = add nsw i64 %5, -1
  store i64 %6, ptr %4, align 8, !tbaa !35
  %7 = icmp ne i64 %6, 0
  br i1 %7, label %8, label %9

8:                                                ; preds = %1
  br label %11

9:                                                ; preds = %1
  %10 = load ptr, ptr %2, align 8, !tbaa !3
  call void @_Py_Dealloc(ptr noundef %10)
  br label %11

11:                                               ; preds = %9, %8
  ret void
}

; Function Attrs: mustprogress uwtable
define internal void @_ZL14OnButtonChangeiPv(i32 noundef %0, ptr noundef %1) #0 {
  %3 = alloca i32, align 4
  %4 = alloca ptr, align 8
  %5 = alloca i32, align 4
  %6 = alloca ptr, align 8
  %7 = alloca ptr, align 8
  %8 = alloca ptr, align 8
  store i32 %0, ptr %3, align 4, !tbaa !50
  store ptr %1, ptr %4, align 8, !tbaa !52
  call void @llvm.lifetime.start.p0(i64 4, ptr %5) #4
  %9 = call i32 @PyGILState_Ensure()
  store i32 %9, ptr %5, align 4, !tbaa !53
  call void @llvm.lifetime.start.p0(i64 8, ptr %6) #4
  %10 = load ptr, ptr %4, align 8, !tbaa !52
  store ptr %10, ptr %6, align 8, !tbaa !3
  call void @llvm.lifetime.start.p0(i64 8, ptr %7) #4
  %11 = load ptr, ptr %6, align 8, !tbaa !3
  %12 = call ptr @PyTuple_GetItem(ptr noundef %11, i64 noundef 1)
  %13 = icmp ne ptr %12, null
  br i1 %13, label %14, label %19

14:                                               ; preds = %2
  %15 = load i32, ptr %3, align 4, !tbaa !50
  %16 = load ptr, ptr %6, align 8, !tbaa !3
  %17 = call ptr @PyTuple_GetItem(ptr noundef %16, i64 noundef 1)
  %18 = call ptr (ptr, ...) @Py_BuildValue(ptr noundef @.str.19, i32 noundef %15, ptr noundef %17)
  store ptr %18, ptr %7, align 8, !tbaa !3
  br label %22

19:                                               ; preds = %2
  %20 = load i32, ptr %3, align 4, !tbaa !50
  %21 = call ptr (ptr, ...) @Py_BuildValue(ptr noundef @.str.18, i32 noundef %20)
  store ptr %21, ptr %7, align 8, !tbaa !3
  br label %22

22:                                               ; preds = %19, %14
  call void @llvm.lifetime.start.p0(i64 8, ptr %8) #4
  %23 = load ptr, ptr %6, align 8, !tbaa !3
  %24 = call ptr @PyTuple_GetItem(ptr noundef %23, i64 noundef 0)
  %25 = load ptr, ptr %7, align 8, !tbaa !3
  %26 = call ptr @PyObject_Call(ptr noundef %24, ptr noundef %25, ptr noundef null)
  store ptr %26, ptr %8, align 8, !tbaa !3
  %27 = load ptr, ptr %8, align 8, !tbaa !3
  %28 = icmp eq ptr %27, null
  br i1 %28, label %29, label %30

29:                                               ; preds = %22
  call void @PyErr_Print()
  br label %32

30:                                               ; preds = %22
  %31 = load ptr, ptr %8, align 8, !tbaa !3
  call void @_ZL10_Py_DECREFP7_object(ptr noundef %31)
  br label %32

32:                                               ; preds = %30, %29
  %33 = load ptr, ptr %7, align 8, !tbaa !3
  call void @_ZL10_Py_DECREFP7_object(ptr noundef %33)
  %34 = load i32, ptr %5, align 4, !tbaa !53
  call void @PyGILState_Release(i32 noundef %34)
  call void @llvm.lifetime.end.p0(i64 8, ptr %8) #4
  call void @llvm.lifetime.end.p0(i64 8, ptr %7) #4
  call void @llvm.lifetime.end.p0(i64 8, ptr %6) #4
  call void @llvm.lifetime.end.p0(i64 4, ptr %5) #4
  ret void
}