; Function Attrs: mustprogress uwtable
define internal void @_ZL14OnButtonChangeiPv(i32 noundef %0, ptr noundef %1) #0 {
  %3 = tail call i32 @PyGILState_Ensure()
  %4 = tail call ptr @PyTuple_GetItem(ptr noundef %1, i64 noundef 1)
  %.not = icmp eq ptr %4, null
  br i1 %.not, label %8, label %5

5:                                                ; preds = %2
  %6 = tail call ptr @PyTuple_GetItem(ptr noundef %1, i64 noundef 1)
  %7 = tail call ptr (ptr, ...) @Py_BuildValue(ptr noundef nonnull @.str.19, i32 noundef %0, ptr noundef %6)
  br label %10

8:                                                ; preds = %2
  %9 = tail call ptr (ptr, ...) @Py_BuildValue(ptr noundef nonnull @.str.18, i32 noundef %0)
  br label %10

10:                                               ; preds = %8, %5
  %.0 = phi ptr [ %7, %5 ], [ %9, %8 ]
  %11 = tail call ptr @PyTuple_GetItem(ptr noundef %1, i64 noundef 0)
  %12 = tail call ptr @PyObject_Call(ptr noundef %11, ptr noundef %.0, ptr noundef null)
  %13 = icmp eq ptr %12, null
  br i1 %13, label %14, label %15

14:                                               ; preds = %10
  tail call void @PyErr_Print()
  br label %_ZL10_Py_DECREFP7_object.exit

15:                                               ; preds = %10
  %16 = load i64, ptr %12, align 8, !tbaa !33
  %17 = add nsw i64 %16, -1
  store i64 %17, ptr %12, align 8, !tbaa !33
  %.not.i = icmp eq i64 %17, 0
  br i1 %.not.i, label %18, label %_ZL10_Py_DECREFP7_object.exit

18:                                               ; preds = %15
  tail call void @_Py_Dealloc(ptr noundef nonnull %12)
  br label %_ZL10_Py_DECREFP7_object.exit

_ZL10_Py_DECREFP7_object.exit:                    ; preds = %18, %15, %14
  %19 = load i64, ptr %.0, align 8, !tbaa !33
  %20 = add nsw i64 %19, -1
  store i64 %20, ptr %.0, align 8, !tbaa !33
  %.not.i11 = icmp eq i64 %20, 0
  br i1 %.not.i11, label %21, label %_ZL10_Py_DECREFP7_object.exit12

21:                                               ; preds = %_ZL10_Py_DECREFP7_object.exit
  tail call void @_Py_Dealloc(ptr noundef nonnull %.0)
  br label %_ZL10_Py_DECREFP7_object.exit12

_ZL10_Py_DECREFP7_object.exit12:                  ; preds = %_ZL10_Py_DECREFP7_object.exit, %21
  tail call void @PyGILState_Release(i32 noundef %3)
  ret void
}